; Function Attrs: mustprogress uwtable
define void @_ZNK15ManufTableModel4dataERK11QModelIndexi(ptr dead_on_unwind noalias writable sret(%class.QVariant) align 8 %0, ptr nocapture noundef nonnull readonly align 8 dereferenceable(40) %1, ptr nocapture noundef nonnull readonly align 8 dereferenceable(24) %2, i32 noundef %3) unnamed_addr #0 align 2 {
  %5 = load i32, ptr %2, align 8
  %6 = icmp sgt i32 %5, -1
  %7 = getelementptr inbounds i8, ptr %2, i64 4
  %8 = load i32, ptr %7, align 4
  %9 = icmp sgt i32 %8, -1
  %or.cond.i = select i1 %6, i1 %9, i1 false
  %10 = getelementptr inbounds i8, ptr %2, i64 16
  %11 = load ptr, ptr %10, align 8
  %12 = icmp ne ptr %11, null
  %or.cond = select i1 %or.cond.i, i1 %12, i1 false
  br i1 %or.cond, label %14, label %_ZNK11QModelIndex7isValidEv.exit.thread

_ZNK11QModelIndex7isValidEv.exit.thread:          ; preds = %4
  tail call void @llvm.memset.p0.i64(ptr noundef nonnull align 8 dereferenceable(24) %0, i8 0, i64 24, i1 false)
  %13 = getelementptr inbounds i8, ptr %0, i64 24
  store i64 2, ptr %13, align 8
  br label %48

14:                                               ; preds = %4
  %15 = zext nneg i32 %5 to i64
  %16 = getelementptr inbounds i8, ptr %1, i64 32
  %17 = load i64, ptr %16, align 8
  %.not = icmp sgt i64 %17, %15
  br i1 %.not, label %20, label %18

18:                                               ; preds = %14
  tail call void @llvm.memset.p0.i64(ptr noundef nonnull align 8 dereferenceable(24) %0, i8 0, i64 24, i1 false)
  %19 = getelementptr inbounds i8, ptr %0, i64 24
  store i64 2, ptr %19, align 8
  br label %48

20:                                               ; preds = %14
  %21 = getelementptr inbounds i8, ptr %1, i64 24
  %22 = load ptr, ptr %21, align 8
  %23 = getelementptr ptr, ptr %22, i64 %15
  %24 = load ptr, ptr %23, align 8
  %25 = icmp ugt i32 %8, 2
  br i1 %25, label %26, label %28

26:                                               ; preds = %20
  tail call void @llvm.memset.p0.i64(ptr noundef nonnull align 8 dereferenceable(24) %0, i8 0, i64 24, i1 false)
  %27 = getelementptr inbounds i8, ptr %0, i64 24
  store i64 2, ptr %27, align 8
  br label %48

28:                                               ; preds = %20
  switch i32 %3, label %46 [
    i32 0, label %29
    i32 256, label %38
  ]

29:                                               ; preds = %28
  switch i32 %8, label %36 [
    i32 0, label %30
    i32 1, label %32
    i32 2, label %34
  ]

30:                                               ; preds = %29
  %31 = getelementptr inbounds i8, ptr %24, i64 24
  tail call void @_ZN8QVariantC1ERK7QString(ptr noundef nonnull align 8 dereferenceable(32) %0, ptr noundef nonnull align 8 dereferenceable(24) %31)
  br label %48

32:                                               ; preds = %29
  %33 = getelementptr inbounds i8, ptr %24, i64 48
  tail call void @_ZN8QVariantC1ERK7QString(ptr noundef nonnull align 8 dereferenceable(32) %0, ptr noundef nonnull align 8 dereferenceable(24) %33)
  br label %48

34:                                               ; preds = %29
  %35 = getelementptr inbounds i8, ptr %24, i64 72
  tail call void @_ZN8QVariantC1ERK7QString(ptr noundef nonnull align 8 dereferenceable(32) %0, ptr noundef nonnull align 8 dereferenceable(24) %35)
  br label %48

36:                                               ; preds = %29
  tail call void @llvm.memset.p0.i64(ptr noundef nonnull align 8 dereferenceable(24) %0, i8 0, i64 24, i1 false)
  %37 = getelementptr inbounds i8, ptr %0, i64 24
  store i64 2, ptr %37, align 8
  br label %48

38:                                               ; preds = %28
  switch i32 %8, label %44 [
    i32 0, label %39
    i32 1, label %40
    i32 2, label %42
  ]

39:                                               ; preds = %38
  tail call void @_ZN8QVariantC1ERK10QByteArray(ptr noundef nonnull align 8 dereferenceable(32) %0, ptr noundef nonnull align 8 dereferenceable(24) %24)
  br label %48

40:                                               ; preds = %38
  %41 = getelementptr inbounds i8, ptr %24, i64 48
  tail call void @_ZN8QVariantC1ERK7QString(ptr noundef nonnull align 8 dereferenceable(32) %0, ptr noundef nonnull align 8 dereferenceable(24) %41)
  br label %48

42:                                               ; preds = %38
  %43 = getelementptr inbounds i8, ptr %24, i64 72
  tail call void @_ZN8QVariantC1ERK7QString(ptr noundef nonnull align 8 dereferenceable(32) %0, ptr noundef nonnull align 8 dereferenceable(24) %43)
  br label %48

44:                                               ; preds = %38
  tail call void @llvm.memset.p0.i64(ptr noundef nonnull align 8 dereferenceable(24) %0, i8 0, i64 24, i1 false)
  %45 = getelementptr inbounds i8, ptr %0, i64 24
  store i64 2, ptr %45, align 8
  br label %48

46:                                               ; preds = %28
  tail call void @llvm.memset.p0.i64(ptr noundef nonnull align 8 dereferenceable(24) %0, i8 0, i64 24, i1 false)
  %47 = getelementptr inbounds i8, ptr %0, i64 24
  store i64 2, ptr %47, align 8
  br label %48

48:                                               ; preds = %46, %44, %42, %40, %39, %36, %34, %32, %30, %26, %18, %_ZNK11QModelIndex7isValidEv.exit.thread
  ret void
}